; Function Attrs: mustprogress uwtable
define void @_ZN2cv6detail8tracking17TrackerFeatureSet10extractionERKSt6vectorINS_3MatESaIS4_EE(ptr noundef nonnull align 8 dereferenceable(56) initializes((0, 1)) %0, ptr noundef nonnull align 8 dereferenceable(24) %1) local_unnamed_addr #2 align 2 personality ptr @__gxx_personality_v0 {
  store i8 1, ptr %0, align 8, !tbaa !3
  %3 = getelementptr inbounds nuw i8, ptr %0, i64 32
  %4 = load ptr, ptr %3, align 8, !tbaa !19
  %5 = getelementptr inbounds nuw i8, ptr %0, i64 40
  %6 = load ptr, ptr %5, align 8, !tbaa !20
  %.not.i.i.i = icmp eq ptr %6, %4
  br i1 %.not.i.i.i, label %_ZN2cv6detail8tracking17TrackerFeatureSet14clearResponsesEv.exit, label %.lr.ph.i.i.i.i.i.i

.lr.ph.i.i.i.i.i.i:                               ; preds = %2, %.lr.ph.i.i.i.i.i.i
  %.05.i.i.i.i.i.i = phi ptr [ %7, %.lr.ph.i.i.i.i.i.i ], [ %4, %2 ]
  tail call void @_ZN2cv3MatD1Ev(ptr noundef nonnull align 8 dereferenceable(96) %.05.i.i.i.i.i.i) #15
  %7 = getelementptr inbounds nuw i8, ptr %.05.i.i.i.i.i.i, i64 96
  %.not.i.i.i.i.i.i = icmp eq ptr %7, %6
  br i1 %.not.i.i.i.i.i.i, label %_ZSt8_DestroyIPN2cv3MatES1_EvT_S3_RSaIT0_E.exit.i.i.i, label %.lr.ph.i.i.i.i.i.i, !llvm.loop !21

_ZSt8_DestroyIPN2cv3MatES1_EvT_S3_RSaIT0_E.exit.i.i.i: ; preds = %.lr.ph.i.i.i.i.i.i
  store ptr %4, ptr %5, align 8, !tbaa !20
  %.pre = load ptr, ptr %3, align 8, !tbaa !19
  br label %_ZN2cv6detail8tracking17TrackerFeatureSet14clearResponsesEv.exit

_ZN2cv6detail8tracking17TrackerFeatureSet14clearResponsesEv.exit: ; preds = %2, %_ZSt8_DestroyIPN2cv3MatES1_EvT_S3_RSaIT0_E.exit.i.i.i
  %8 = phi ptr [ %4, %2 ], [ %.pre, %_ZSt8_DestroyIPN2cv3MatES1_EvT_S3_RSaIT0_E.exit.i.i.i ]
  %9 = getelementptr inbounds nuw i8, ptr %0, i64 8
  %10 = getelementptr inbounds nuw i8, ptr %0, i64 16
  %11 = load ptr, ptr %10, align 8, !tbaa !24
  %12 = load ptr, ptr %9, align 8, !tbaa !23
  %13 = ptrtoint ptr %11 to i64
  %14 = ptrtoint ptr %12 to i64
  %15 = sub i64 %13, %14
  %16 = ashr exact i64 %15, 4
  %17 = ptrtoint ptr %4 to i64
  %18 = ptrtoint ptr %8 to i64
  %19 = sub i64 %17, %18
  %20 = sdiv exact i64 %19, 96
  %21 = icmp ugt i64 %16, %20
  br i1 %21, label %22, label %24

22:                                               ; preds = %_ZN2cv6detail8tracking17TrackerFeatureSet14clearResponsesEv.exit
  %23 = sub nuw nsw i64 %16, %20
  tail call void @_ZNSt6vectorIN2cv3MatESaIS1_EE17_M_default_appendEm(ptr noundef nonnull align 8 dereferenceable(24) %3, i64 noundef %23)
  br label %_ZNSt6vectorIN2cv3MatESaIS1_EE6resizeEm.exit

24:                                               ; preds = %_ZN2cv6detail8tracking17TrackerFeatureSet14clearResponsesEv.exit
  %25 = icmp ult i64 %16, %20
  br i1 %25, label %26, label %_ZNSt6vectorIN2cv3MatESaIS1_EE6resizeEm.exit

26:                                               ; preds = %24
  %27 = getelementptr inbounds nuw %"class.cv::Mat", ptr %8, i64 %16
  %.not.i.i = icmp eq ptr %4, %27
  br i1 %.not.i.i, label %_ZNSt6vectorIN2cv3MatESaIS1_EE6resizeEm.exit, label %.lr.ph.i.i.i.i.i

.lr.ph.i.i.i.i.i:                                 ; preds = %26, %.lr.ph.i.i.i.i.i
  %.05.i.i.i.i.i = phi ptr [ %28, %.lr.ph.i.i.i.i.i ], [ %27, %26 ]
  tail call void @_ZN2cv3MatD1Ev(ptr noundef nonnull align 8 dereferenceable(96) %.05.i.i.i.i.i) #15
  %28 = getelementptr inbounds nuw i8, ptr %.05.i.i.i.i.i, i64 96
  %.not.i.i.i.i.i = icmp eq ptr %28, %4
  br i1 %.not.i.i.i.i.i, label %_ZSt8_DestroyIPN2cv3MatES1_EvT_S3_RSaIT0_E.exit.i.i, label %.lr.ph.i.i.i.i.i, !llvm.loop !21

_ZSt8_DestroyIPN2cv3MatES1_EvT_S3_RSaIT0_E.exit.i.i: ; preds = %.lr.ph.i.i.i.i.i
  store ptr %27, ptr %5, align 8, !tbaa !20
  br label %_ZNSt6vectorIN2cv3MatESaIS1_EE6resizeEm.exit

_ZNSt6vectorIN2cv3MatESaIS1_EE6resizeEm.exit:     ; preds = %22, %24, %26, %_ZSt8_DestroyIPN2cv3MatES1_EvT_S3_RSaIT0_E.exit.i.i
  %29 = load ptr, ptr %10, align 8, !tbaa !24
  %30 = load ptr, ptr %9, align 8, !tbaa !23
  %.not = icmp eq ptr %29, %30
  br i1 %.not, label %._crit_edge, label %.lr.ph

._crit_edge:                                      ; preds = %.lr.ph, %_ZNSt6vectorIN2cv3MatESaIS1_EE6resizeEm.exit
  ret void

.lr.ph:                                           ; preds = %_ZNSt6vectorIN2cv3MatESaIS1_EE6resizeEm.exit, %.lr.ph
  %31 = phi ptr [ %38, %.lr.ph ], [ %30, %_ZNSt6vectorIN2cv3MatESaIS1_EE6resizeEm.exit ]
  %.05 = phi i64 [ %36, %.lr.ph ], [ 0, %_ZNSt6vectorIN2cv3MatESaIS1_EE6resizeEm.exit ]
  %32 = getelementptr inbounds nuw %"struct.cv::Ptr", ptr %31, i64 %.05
  %33 = load ptr, ptr %32, align 8, !tbaa !38
  %34 = load ptr, ptr %3, align 8, !tbaa !19
  %35 = getelementptr inbounds nuw %"class.cv::Mat", ptr %34, i64 %.05
  tail call void @_ZN2cv6detail8tracking14TrackerFeature7computeERKSt6vectorINS_3MatESaIS4_EERS4_(ptr noundef nonnull align 8 dereferenceable(8) %33, ptr noundef nonnull align 8 dereferenceable(24) %1, ptr noundef nonnull align 8 dereferenceable(96) %35)
  %36 = add nuw i64 %.05, 1
  %37 = load ptr, ptr %10, align 8, !tbaa !24
  %38 = load ptr, ptr %9, align 8, !tbaa !23
  %39 = ptrtoint ptr %37 to i64
  %40 = ptrtoint ptr %38 to i64
  %41 = sub i64 %39, %40
  %42 = ashr exact i64 %41, 4
  %43 = icmp ult i64 %36, %42
  br i1 %43, label %.lr.ph, label %._crit_edge, !llvm.loop !41
}